; Function Attrs: mustprogress uwtable
define void @_ZN6icu_7522TransliteratorRegistry3putERKNS_13UnicodeStringES3_15UTransDirectionaaR10UErrorCode(ptr noundef nonnull align 8 dereferenceable(312) %this, ptr noundef nonnull align 8 dereferenceable(64) %ID, ptr noundef nonnull align 8 dereferenceable(64) %resourceName, i32 noundef %dir, i8 noundef signext %readonlyResourceAlias, i8 noundef signext %visible, ptr nocapture noundef nonnull writeonly align 4 dereferenceable(4) %ec) local_unnamed_addr #1 align 2 personality ptr @__gxx_personality_v0 {
entry:
  %agg.tmp = alloca %"class.icu_75::ConstChar16Ptr", align 8
  %call = tail call noundef ptr @_ZN6icu_757UMemorynwEm(i64 noundef 104) #15
  %new.isnull = icmp eq ptr %call, null
  br i1 %new.isnull, label %if.then, label %new.notnull

new.notnull:                                      ; preds = %entry
  invoke void @_ZN6icu_7519TransliteratorEntryC1Ev(ptr noundef nonnull align 8 dereferenceable(104) %call)
          to label %if.end unwind label %lpad

if.then:                                          ; preds = %entry
  store i32 7, ptr %ec, align 4
  br label %return

lpad:                                             ; preds = %new.notnull
  %0 = landingpad { ptr, i32 }
          cleanup
  tail call void @_ZN6icu_757UMemorydlEPv(ptr noundef nonnull %call) #15
  br label %eh.resume

if.end:                                           ; preds = %new.notnull
  %cmp3 = icmp ne i32 %dir, 0
  %cond = zext i1 %cmp3 to i32
  store i32 %cond, ptr %call, align 8
  %tobool.not = icmp eq i8 %readonlyResourceAlias, 0
  %stringArg9 = getelementptr inbounds i8, ptr %call, i64 8
  br i1 %tobool.not, label %if.else, label %if.then4

if.then4:                                         ; preds = %if.end
  %fUnion.i = getelementptr inbounds i8, ptr %resourceName, i64 8
  %1 = load i16, ptr %fUnion.i, align 8
  %conv1.i = zext i16 %1 to i32
  %and.i = and i32 %conv1.i, 17
  %tobool.not.i = icmp eq i32 %and.i, 0
  br i1 %tobool.not.i, label %if.else.i, label %_ZNK6icu_7513UnicodeString9getBufferEv.exit

if.else.i:                                        ; preds = %if.then4
  %and5.i = and i32 %conv1.i, 2
  %tobool6.not.i = icmp eq i32 %and5.i, 0
  br i1 %tobool6.not.i, label %if.else9.i, label %if.then7.i

if.then7.i:                                       ; preds = %if.else.i
  %fBuffer.i = getelementptr inbounds i8, ptr %resourceName, i64 10
  br label %_ZNK6icu_7513UnicodeString9getBufferEv.exit

if.else9.i:                                       ; preds = %if.else.i
  %fArray.i = getelementptr inbounds i8, ptr %resourceName, i64 24
  %2 = load ptr, ptr %fArray.i, align 8
  br label %_ZNK6icu_7513UnicodeString9getBufferEv.exit

_ZNK6icu_7513UnicodeString9getBufferEv.exit:      ; preds = %if.then4, %if.then7.i, %if.else9.i
  %retval.0.i = phi ptr [ %fBuffer.i, %if.then7.i ], [ %2, %if.else9.i ], [ null, %if.then4 ]
  store ptr %retval.0.i, ptr %agg.tmp, align 8
  %call8 = invoke noundef nonnull align 8 dereferenceable(64) ptr @_ZN6icu_7513UnicodeString5setToEaNS_14ConstChar16PtrEi(ptr noundef nonnull align 8 dereferenceable(64) %stringArg9, i8 noundef signext 1, ptr noundef nonnull %agg.tmp, i32 noundef -1)
          to label %invoke.cont7 unwind label %lpad6

invoke.cont7:                                     ; preds = %_ZNK6icu_7513UnicodeString9getBufferEv.exit
  %3 = load ptr, ptr %agg.tmp, align 8
  call void asm sideeffect "", "rm,~{memory},~{dirflag},~{fpsr},~{flags}"(ptr %3) #15, !srcloc !9
  br label %if.end11

lpad6:                                            ; preds = %_ZNK6icu_7513UnicodeString9getBufferEv.exit
  %4 = landingpad { ptr, i32 }
          cleanup
  %5 = load ptr, ptr %agg.tmp, align 8
  call void asm sideeffect "", "rm,~{memory},~{dirflag},~{fpsr},~{flags}"(ptr %5) #15, !srcloc !9
  br label %eh.resume

if.else:                                          ; preds = %if.end
  %call10 = tail call noundef nonnull align 8 dereferenceable(64) ptr @_ZN6icu_7513UnicodeStringaSERKS0_(ptr noundef nonnull align 8 dereferenceable(64) %stringArg9, ptr noundef nonnull align 8 dereferenceable(64) %resourceName)
  br label %if.end11

if.end11:                                         ; preds = %if.else, %invoke.cont7
  call void @_ZN6icu_7522TransliteratorRegistry13registerEntryERKNS_13UnicodeStringEPNS_19TransliteratorEntryEa(ptr noundef nonnull align 8 dereferenceable(312) %this, ptr noundef nonnull align 8 dereferenceable(64) %ID, ptr noundef nonnull %call, i8 noundef signext %visible)
  br label %return

return:                                           ; preds = %if.end11, %if.then
  ret void

eh.resume:                                        ; preds = %lpad, %lpad6
  %.pn = phi { ptr, i32 } [ %4, %lpad6 ], [ %0, %lpad ]
  resume { ptr, i32 } %.pn
}